#include <math.h>
#include <stdio.h>
#include <stdlib.h>
#include <string.h>


int main()
{
	char s[300];
	gets(s);
	int i, l;
	int flag = 1;
	l = strlen(s);
	for (i = 0; i < l; i++)
	{
		if (s[i] != ' ')
		{
			printf("%c", s[i]);
			flag = 1;
		}
		else if (s[i] == ' ')
		{
			if (flag == 0)
				continue;
			else
			{
				printf("%c", s[i]);
				flag = 0;
			}
		}
	}
	putchar('\n');
	return 0;
}